target datalayout = "e-m:e-p270:32:32-p271:32:32-p272:64:64-i64:64-i128:128-f80:128-n8:16:32:64-S128"
target triple = "x86_64-pc-linux-gnu"

%"class.base::internal::WeakReference" = type { %class.scoped_refptr }
%class.scoped_refptr = type { ptr }
%"class.base::internal::WeakReferenceOwner" = type { %class.scoped_refptr.0 }
%class.scoped_refptr.0 = type { ptr }

@_ZN4base8internal13WeakReference4FlagC1Ev = unnamed_addr alias void (ptr), ptr @_ZN4base8internal13WeakReference4FlagC2Ev
@_ZN4base8internal13WeakReference4FlagD1Ev = unnamed_addr alias void (ptr), ptr @_ZN4base8internal13WeakReference4FlagD2Ev
@_ZN4base8internal13WeakReferenceC1EPKNS1_4FlagE = unnamed_addr alias void (ptr, ptr), ptr @_ZN4base8internal13WeakReferenceC2EPKNS1_4FlagE

; Function Attrs: mustprogress nounwind uwtable
define linkonce_odr void @_ZN4base20RefCountedThreadSafeINS_8internal13WeakReference4FlagENS_33DefaultRefCountedThreadSafeTraitsIS3_EEE14DeleteInternalEPKS3_(ptr noundef %0) #1 comdat align 2 {
  %2 = alloca ptr, align 8
  store ptr %0, ptr %2, align 8, !tbaa !3
  %3 = load ptr, ptr %2, align 8, !tbaa !3
  %4 = icmp eq ptr %3, null
  br i1 %4, label %6, label %5

5:                                                ; preds = %1
  call void @_ZN4base8internal13WeakReference4FlagD1Ev(ptr noundef nonnull align 4 dereferenceable(6) %3) #8
  call void @_ZdlPv(ptr noundef %3) #11
  br label %6

6:                                                ; preds = %5, %1
  ret void
}

; Function Attrs: mustprogress uwtable
define linkonce_odr void @_ZN4base33DefaultRefCountedThreadSafeTraitsINS_8internal13WeakReference4FlagEE8DestructEPKS3_(ptr noundef %0) #0 comdat align 2 {
  %2 = alloca ptr, align 8
  store ptr %0, ptr %2, align 8, !tbaa !3
  %3 = load ptr, ptr %2, align 8, !tbaa !3
  call void @_ZN4base20RefCountedThreadSafeINS_8internal13WeakReference4FlagENS_33DefaultRefCountedThreadSafeTraitsIS3_EEE14DeleteInternalEPKS3_(ptr noundef %3)
  ret void
}

; Function Attrs: mustprogress uwtable
define linkonce_odr void @_ZNK4base20RefCountedThreadSafeINS_8internal13WeakReference4FlagENS_33DefaultRefCountedThreadSafeTraitsIS3_EEE7ReleaseEv(ptr noundef nonnull align 4 dereferenceable(4) %0) #0 comdat align 2 {
  %2 = alloca ptr, align 8
  store ptr %0, ptr %2, align 8, !tbaa !15
  %3 = load ptr, ptr %2, align 8
  %4 = call noundef zeroext i1 @_ZNK4base6subtle24RefCountedThreadSafeBase7ReleaseEv(ptr noundef nonnull align 4 dereferenceable(4) %3)
  br i1 %4, label %5, label %6

5:                                                ; preds = %1
  call void @_ZN4base33DefaultRefCountedThreadSafeTraitsINS_8internal13WeakReference4FlagEE8DestructEPKS3_(ptr noundef %3)
  br label %6

6:                                                ; preds = %5, %1
  ret void
}

; Function Attrs: mustprogress uwtable
define linkonce_odr void @_ZNK4base20RefCountedThreadSafeINS_8internal13WeakReference4FlagENS_33DefaultRefCountedThreadSafeTraitsIS3_EEE6AddRefEv(ptr noundef nonnull align 4 dereferenceable(4) %0) #0 comdat align 2 {
  %2 = alloca ptr, align 8
  store ptr %0, ptr %2, align 8, !tbaa !15
  %3 = load ptr, ptr %2, align 8
  call void @_ZNK4base6subtle24RefCountedThreadSafeBase6AddRefEv(ptr noundef nonnull align 4 dereferenceable(4) %3)
  ret void
}

; Function Attrs: mustprogress uwtable
define linkonce_odr void @_ZN13scoped_refptrIN4base8internal13WeakReference4FlagEE7ReleaseEPS3_(ptr noundef %0) #0 comdat align 2 {
  %2 = alloca ptr, align 8
  store ptr %0, ptr %2, align 8, !tbaa !3
  %3 = load ptr, ptr %2, align 8, !tbaa !3
  call void @_ZNK4base20RefCountedThreadSafeINS_8internal13WeakReference4FlagENS_33DefaultRefCountedThreadSafeTraitsIS3_EEE7ReleaseEv(ptr noundef nonnull align 4 dereferenceable(4) %3)
  ret void
}

; Function Attrs: mustprogress uwtable
define linkonce_odr void @_ZN13scoped_refptrIN4base8internal13WeakReference4FlagEE6AddRefEPS3_(ptr noundef %0) #0 comdat align 2 {
  %2 = alloca ptr, align 8
  store ptr %0, ptr %2, align 8, !tbaa !3
  %3 = load ptr, ptr %2, align 8, !tbaa !3
  call void @_ZNK4base20RefCountedThreadSafeINS_8internal13WeakReference4FlagENS_33DefaultRefCountedThreadSafeTraitsIS3_EEE6AddRefEv(ptr noundef nonnull align 4 dereferenceable(4) %3)
  ret void
}

; Function Attrs: mustprogress nounwind uwtable
define linkonce_odr noundef ptr @_ZNK13scoped_refptrIN4base8internal13WeakReference4FlagEEptEv(ptr noundef nonnull align 8 dereferenceable(8) %0) #1 comdat align 2 {
  %2 = alloca ptr, align 8
  store ptr %0, ptr %2, align 8, !tbaa !29
  %3 = load ptr, ptr %2, align 8
  %4 = getelementptr inbounds nuw %class.scoped_refptr.0, ptr %3, i32 0, i32 0
  %5 = load ptr, ptr %4, align 8, !tbaa !31
  ret ptr %5
}

; Function Attrs: mustprogress nounwind uwtable
define linkonce_odr noundef ptr @_ZNK13scoped_refptrIN4base8internal13WeakReference4FlagEE3getEv(ptr noundef nonnull align 8 dereferenceable(8) %0) #1 comdat align 2 {
  %2 = alloca ptr, align 8
  store ptr %0, ptr %2, align 8, !tbaa !29
  %3 = load ptr, ptr %2, align 8
  %4 = getelementptr inbounds nuw %class.scoped_refptr.0, ptr %3, i32 0, i32 0
  %5 = load ptr, ptr %4, align 8, !tbaa !31
  ret ptr %5
}

; Function Attrs: mustprogress uwtable
define linkonce_odr noundef nonnull align 8 dereferenceable(8) ptr @_ZN13scoped_refptrIN4base8internal13WeakReference4FlagEEaSEPS3_(ptr noundef nonnull align 8 dereferenceable(8) %0, ptr noundef %1) #0 comdat align 2 {
  %3 = alloca ptr, align 8
  %4 = alloca ptr, align 8
  %5 = alloca ptr, align 8
  store ptr %0, ptr %3, align 8, !tbaa !29
  store ptr %1, ptr %4, align 8, !tbaa !3
  %6 = load ptr, ptr %3, align 8
  %7 = load ptr, ptr %4, align 8, !tbaa !3
  %8 = icmp ne ptr %7, null
  br i1 %8, label %9, label %11

9:                                                ; preds = %2
  %10 = load ptr, ptr %4, align 8, !tbaa !3
  call void @_ZN13scoped_refptrIN4base8internal13WeakReference4FlagEE6AddRefEPS3_(ptr noundef %10)
  br label %11

11:                                               ; preds = %9, %2
  call void @llvm.lifetime.start.p0(i64 8, ptr %5) #8
  %12 = getelementptr inbounds nuw %class.scoped_refptr.0, ptr %6, i32 0, i32 0
  %13 = load ptr, ptr %12, align 8, !tbaa !31
  store ptr %13, ptr %5, align 8, !tbaa !3
  %14 = load ptr, ptr %4, align 8, !tbaa !3
  %15 = getelementptr inbounds nuw %class.scoped_refptr.0, ptr %6, i32 0, i32 0
  store ptr %14, ptr %15, align 8, !tbaa !31
  %16 = load ptr, ptr %5, align 8, !tbaa !3
  %17 = icmp ne ptr %16, null
  br i1 %17, label %18, label %20

18:                                               ; preds = %11
  %19 = load ptr, ptr %5, align 8, !tbaa !3
  call void @_ZN13scoped_refptrIN4base8internal13WeakReference4FlagEE7ReleaseEPS3_(ptr noundef %19)
  br label %20

20:                                               ; preds = %18, %11
  call void @llvm.lifetime.end.p0(i64 8, ptr %5) #8
  ret ptr %6
}

; Function Attrs: mustprogress uwtable
define linkonce_odr noundef zeroext i1 @_ZNK4base8internal18WeakReferenceOwner7HasRefsEv(ptr noundef nonnull align 8 dereferenceable(8) %0) #0 comdat align 2 {
  %2 = alloca ptr, align 8
  store ptr %0, ptr %2, align 8, !tbaa !27
  %3 = load ptr, ptr %2, align 8
  %4 = getelementptr inbounds nuw %"class.base::internal::WeakReferenceOwner", ptr %3, i32 0, i32 0
  %5 = call noundef ptr @_ZNK13scoped_refptrIN4base8internal13WeakReference4FlagEE3getEv(ptr noundef nonnull align 8 dereferenceable(8) %4)
  %6 = icmp ne ptr %5, null
  br i1 %6, label %7, label %12

7:                                                ; preds = %1
  %8 = getelementptr inbounds nuw %"class.base::internal::WeakReferenceOwner", ptr %3, i32 0, i32 0
  %9 = call noundef ptr @_ZNK13scoped_refptrIN4base8internal13WeakReference4FlagEEptEv(ptr noundef nonnull align 8 dereferenceable(8) %8)
  %10 = call noundef zeroext i1 @_ZNK4base6subtle24RefCountedThreadSafeBase9HasOneRefEv(ptr noundef nonnull align 4 dereferenceable(4) %9)
  %11 = xor i1 %10, true
  br label %12

12:                                               ; preds = %7, %1
  %13 = phi i1 [ false, %1 ], [ %11, %7 ]
  ret i1 %13
}

; Function Attrs: mustprogress uwtable
define void @_ZNK4base8internal18WeakReferenceOwner6GetRefEv(ptr dead_on_unwind noalias writable sret(%"class.base::internal::WeakReference") align 8 %0, ptr noundef nonnull align 8 dereferenceable(8) %1) #0 align 2 personality ptr @__gxx_personality_v0 {
  %3 = alloca ptr, align 8
  %4 = alloca ptr, align 8
  %5 = alloca ptr, align 8
  %6 = alloca i32, align 4
  store ptr %0, ptr %3, align 8
  store ptr %1, ptr %4, align 8, !tbaa !27
  %7 = load ptr, ptr %4, align 8
  %8 = call noundef zeroext i1 @_ZNK4base8internal18WeakReferenceOwner7HasRefsEv(ptr noundef nonnull align 8 dereferenceable(8) %7)
  br i1 %8, label %18, label %9

9:                                                ; preds = %2
  %10 = call noalias noundef nonnull ptr @_Znwm(i64 noundef 8) #10
  invoke void @_ZN4base8internal13WeakReference4FlagC1Ev(ptr noundef nonnull align 4 dereferenceable(6) %10)
          to label %11 unwind label %14

11:                                               ; preds = %9
  %12 = getelementptr inbounds nuw %"class.base::internal::WeakReferenceOwner", ptr %7, i32 0, i32 0
  %13 = call noundef nonnull align 8 dereferenceable(8) ptr @_ZN13scoped_refptrIN4base8internal13WeakReference4FlagEEaSEPS3_(ptr noundef nonnull align 8 dereferenceable(8) %12, ptr noundef %10)
  br label %18

14:                                               ; preds = %9
  %15 = landingpad { ptr, i32 }
          cleanup
  %16 = extractvalue { ptr, i32 } %15, 0
  store ptr %16, ptr %5, align 8
  %17 = extractvalue { ptr, i32 } %15, 1
  store i32 %17, ptr %6, align 4
  call void @_ZdlPv(ptr noundef %10) #11
  br label %21

18:                                               ; preds = %11, %2
  %19 = getelementptr inbounds nuw %"class.base::internal::WeakReferenceOwner", ptr %7, i32 0, i32 0
  %20 = call noundef ptr @_ZNK13scoped_refptrIN4base8internal13WeakReference4FlagEE3getEv(ptr noundef nonnull align 8 dereferenceable(8) %19)
  call void @_ZN4base8internal13WeakReferenceC1EPKNS1_4FlagE(ptr noundef nonnull align 8 dereferenceable(8) %0, ptr noundef %20)
  ret void

21:                                               ; preds = %14
  %22 = load ptr, ptr %5, align 8
  %23 = load i32, ptr %6, align 4
  %24 = insertvalue { ptr, i32 } poison, ptr %22, 0
  %25 = insertvalue { ptr, i32 } %24, i32 %23, 1
  resume { ptr, i32 } %25
}