; Function Attrs: mustprogress uwtable
define void @_ZNK4base8internal18WeakReferenceOwner6GetRefEv(ptr dead_on_unwind noalias writable sret(%"class.base::internal::WeakReference") align 8 %0, ptr noundef nonnull align 8 captures(none) dereferenceable(8) %1) local_unnamed_addr #0 align 2 personality ptr @__gxx_personality_v0 {
  %3 = load ptr, ptr %1, align 8, !tbaa !18
  %.not.i = icmp eq ptr %3, null
  br i1 %.not.i, label %_ZNK4base8internal18WeakReferenceOwner7HasRefsEv.exit.thread, label %_ZNK4base8internal18WeakReferenceOwner7HasRefsEv.exit

_ZNK4base8internal18WeakReferenceOwner7HasRefsEv.exit: ; preds = %2
  %4 = tail call noundef zeroext i1 @_ZNK4base6subtle24RefCountedThreadSafeBase9HasOneRefEv(ptr noundef nonnull align 4 dereferenceable(4) %3)
  br i1 %4, label %_ZNK4base8internal18WeakReferenceOwner7HasRefsEv.exit.thread, label %_ZN13scoped_refptrIN4base8internal13WeakReference4FlagEEaSEPS3_.exit

_ZNK4base8internal18WeakReferenceOwner7HasRefsEv.exit.thread: ; preds = %2, %_ZNK4base8internal18WeakReferenceOwner7HasRefsEv.exit
  %5 = tail call noalias noundef nonnull dereferenceable(8) ptr @_Znwm(i64 noundef 8) #15
  invoke void @_ZN4base8internal13WeakReference4FlagC1Ev(ptr noundef nonnull align 4 dereferenceable(6) %5)
          to label %6 unwind label %11

6:                                                ; preds = %_ZNK4base8internal18WeakReferenceOwner7HasRefsEv.exit.thread
  tail call void @_ZNK4base6subtle24RefCountedThreadSafeBase6AddRefEv(ptr noundef nonnull align 4 dereferenceable(4) %5)
  %7 = load ptr, ptr %1, align 8, !tbaa !18
  store ptr %5, ptr %1, align 8, !tbaa !18
  %.not7.i = icmp eq ptr %7, null
  br i1 %.not7.i, label %_ZN13scoped_refptrIN4base8internal13WeakReference4FlagEEaSEPS3_.exit, label %8

8:                                                ; preds = %6
  %9 = tail call noundef zeroext i1 @_ZNK4base6subtle24RefCountedThreadSafeBase7ReleaseEv(ptr noundef nonnull align 4 dereferenceable(4) %7)
  br i1 %9, label %10, label %_ZN13scoped_refptrIN4base8internal13WeakReference4FlagEEaSEPS3_.exit

10:                                               ; preds = %8
  tail call void @_ZN4base8internal13WeakReference4FlagD1Ev(ptr noundef nonnull align 4 dereferenceable(6) %7) #12
  tail call void @_ZdlPv(ptr noundef nonnull align 4 dereferenceable(4) %7) #13
  br label %_ZN13scoped_refptrIN4base8internal13WeakReference4FlagEEaSEPS3_.exit

11:                                               ; preds = %_ZNK4base8internal18WeakReferenceOwner7HasRefsEv.exit.thread
  %12 = landingpad { ptr, i32 }
          cleanup
  tail call void @_ZdlPv(ptr noundef nonnull %5) #13
  resume { ptr, i32 } %12

_ZN13scoped_refptrIN4base8internal13WeakReference4FlagEEaSEPS3_.exit: ; preds = %10, %8, %6, %_ZNK4base8internal18WeakReferenceOwner7HasRefsEv.exit
  %13 = load ptr, ptr %1, align 8, !tbaa !18
  tail call void @_ZN4base8internal13WeakReferenceC1EPKNS1_4FlagE(ptr noundef nonnull align 8 dereferenceable(8) %0, ptr noundef %13)
  ret void
}